(dp1
S'docID'
p2
S'VARCHAR(512)'
p3
sS'author'
p4
S'VARCHAR(512)'
p5
sS'cc'
p6
S'VARCHAR(512)'
p7
sS'sentto'
p8
S'VARCHAR(512)'
p9
sS'bcc'
p10
S'VARCHAR(512)'
p11
sS'extracted'
p12
S'LONGTEXT'
p13
sS'grpID'
p14
S'VARCHAR(512)'
p15
sS'sentDate'
p16
S'VARCHAR(512)'
p17
sS'type'
p18
S'VARCHAR(512)'
p19
sS'id'
p20
S'INT AUTO_INCREMENT NOT NULL'
p21
sS'subject'
p22
S'VARCHAR(512)'
p23
s.